target datalayout = "e-m:e-p270:32:32-p271:32:32-p272:64:64-i64:64-i128:128-f80:128-n8:16:32:64-S128"
target triple = "x86_64-pc-linux-gnu"

%class.Node = type <{ ptr, ptr, ptr, i32, i32, i32, i32, i32, i32, i32, [4 x i8] }>
%class.C2AccessValuePtr = type { %class.C2AccessValue }
%class.C2AccessValue = type { ptr, ptr }
%class.C2OptAccess = type { %class.C2Access.base, ptr, ptr, ptr }
%class.C2Access.base = type <{ ptr, i64, i8, [7 x i8], ptr, ptr, ptr, i8 }>
%class.C2Access = type <{ ptr, i64, i8, [7 x i8], ptr, ptr, ptr, i8, [7 x i8] }>

@_ZTV11C2OptAccess = linkonce_odr hidden unnamed_addr constant { [6 x ptr] } { [6 x ptr] [ptr null, ptr null, ptr @_ZN8C2Access10set_memoryEv, ptr @_ZNK11C2OptAccess3gvnEv, ptr @_ZNK8C2Access15is_parse_accessEv, ptr @_ZNK11C2OptAccess13is_opt_accessEv] }, comdat, align 8
@_ZTV8C2Access = linkonce_odr hidden unnamed_addr constant { [6 x ptr] } { [6 x ptr] [ptr null, ptr null, ptr @_ZN8C2Access10set_memoryEv, ptr @__cxa_pure_virtual, ptr @_ZNK8C2Access15is_parse_accessEv, ptr @_ZNK8C2Access13is_opt_accessEv] }, comdat, align 8

; Function Attrs: mustprogress nounwind uwtable
define linkonce_odr hidden void @_ZN8C2AccessC2Em9BasicTypeP4NodeR16C2AccessValuePtr(ptr noundef nonnull align 8 dereferenceable(49) %0, i64 noundef %1, i8 noundef zeroext %2, ptr noundef %3, ptr noundef nonnull align 8 dereferenceable(16) %4) unnamed_addr #1 comdat align 2 {
  %6 = alloca ptr, align 8
  %7 = alloca i64, align 8
  %8 = alloca i8, align 1
  %9 = alloca ptr, align 8
  %10 = alloca ptr, align 8
  store ptr %0, ptr %6, align 8
  store i64 %1, ptr %7, align 8
  store i8 %2, ptr %8, align 1
  store ptr %3, ptr %9, align 8
  store ptr %4, ptr %10, align 8
  %11 = load ptr, ptr %6, align 8
  store ptr getelementptr inbounds inrange(-16, 32) ({ [6 x ptr] }, ptr @_ZTV8C2Access, i32 0, i32 0, i32 2), ptr %11, align 8
  %12 = getelementptr inbounds %class.C2Access, ptr %11, i32 0, i32 1
  %13 = load i64, ptr %7, align 8
  store i64 %13, ptr %12, align 8
  %14 = getelementptr inbounds %class.C2Access, ptr %11, i32 0, i32 2
  %15 = load i8, ptr %8, align 1
  store i8 %15, ptr %14, align 8
  %16 = getelementptr inbounds %class.C2Access, ptr %11, i32 0, i32 4
  %17 = load ptr, ptr %9, align 8
  store ptr %17, ptr %16, align 8
  %18 = getelementptr inbounds %class.C2Access, ptr %11, i32 0, i32 5
  %19 = load ptr, ptr %10, align 8
  store ptr %19, ptr %18, align 8
  %20 = getelementptr inbounds %class.C2Access, ptr %11, i32 0, i32 6
  store ptr null, ptr %20, align 8
  %21 = getelementptr inbounds %class.C2Access, ptr %11, i32 0, i32 7
  store i8 0, ptr %21, align 8
  ret void
}

; Function Attrs: mustprogress nounwind uwtable
define linkonce_odr hidden void @_ZN13C2AccessValueC2EP4NodePK4Type(ptr noundef nonnull align 8 dereferenceable(16) %0, ptr noundef %1, ptr noundef %2) unnamed_addr #1 comdat align 2 {
  %4 = alloca ptr, align 8
  %5 = alloca ptr, align 8
  %6 = alloca ptr, align 8
  store ptr %0, ptr %4, align 8
  store ptr %1, ptr %5, align 8
  store ptr %2, ptr %6, align 8
  %7 = load ptr, ptr %4, align 8
  %8 = getelementptr inbounds %class.C2AccessValue, ptr %7, i32 0, i32 0
  %9 = load ptr, ptr %5, align 8
  store ptr %9, ptr %8, align 8
  %10 = getelementptr inbounds %class.C2AccessValue, ptr %7, i32 0, i32 1
  %11 = load ptr, ptr %6, align 8
  store ptr %11, ptr %10, align 8
  ret void
}

; Function Attrs: mustprogress nounwind uwtable
define linkonce_odr hidden noundef ptr @_ZNK11C2OptAccess3ctlEv(ptr noundef nonnull align 8 dereferenceable(80) %0) #1 comdat align 2 {
  %2 = alloca ptr, align 8
  store ptr %0, ptr %2, align 8
  %3 = load ptr, ptr %2, align 8
  %4 = getelementptr inbounds %class.C2OptAccess, ptr %3, i32 0, i32 3
  %5 = load ptr, ptr %4, align 8
  ret ptr %5
}

; Function Attrs: mustprogress nounwind uwtable
define linkonce_odr hidden void @_ZN11C2OptAccessC2ER8PhaseGVNP4NodeP12MergeMemNodem9BasicTypeS3_R16C2AccessValuePtr(ptr noundef nonnull align 8 dereferenceable(80) %0, ptr noundef nonnull align 8 dereferenceable(2400) %1, ptr noundef %2, ptr noundef %3, i64 noundef %4, i8 noundef zeroext %5, ptr noundef %6, ptr noundef nonnull align 8 dereferenceable(16) %7) unnamed_addr #1 comdat align 2 {
  %9 = alloca ptr, align 8
  %10 = alloca ptr, align 8
  %11 = alloca ptr, align 8
  %12 = alloca ptr, align 8
  %13 = alloca i64, align 8
  %14 = alloca i8, align 1
  %15 = alloca ptr, align 8
  %16 = alloca ptr, align 8
  store ptr %0, ptr %9, align 8
  store ptr %1, ptr %10, align 8
  store ptr %2, ptr %11, align 8
  store ptr %3, ptr %12, align 8
  store i64 %4, ptr %13, align 8
  store i8 %5, ptr %14, align 1
  store ptr %6, ptr %15, align 8
  store ptr %7, ptr %16, align 8
  %17 = load ptr, ptr %9, align 8
  %18 = load i64, ptr %13, align 8
  %19 = load i8, ptr %14, align 1
  %20 = load ptr, ptr %15, align 8
  %21 = load ptr, ptr %16, align 8
  call void @_ZN8C2AccessC2Em9BasicTypeP4NodeR16C2AccessValuePtr(ptr noundef nonnull align 8 dereferenceable(49) %17, i64 noundef %18, i8 noundef zeroext %19, ptr noundef %20, ptr noundef nonnull align 8 dereferenceable(16) %21)
  store ptr getelementptr inbounds inrange(-16, 32) ({ [6 x ptr] }, ptr @_ZTV11C2OptAccess, i32 0, i32 0, i32 2), ptr %17, align 8
  %22 = getelementptr inbounds %class.C2OptAccess, ptr %17, i32 0, i32 1
  %23 = load ptr, ptr %10, align 8
  store ptr %23, ptr %22, align 8
  %24 = getelementptr inbounds %class.C2OptAccess, ptr %17, i32 0, i32 2
  %25 = load ptr, ptr %12, align 8
  store ptr %25, ptr %24, align 8
  %26 = getelementptr inbounds %class.C2OptAccess, ptr %17, i32 0, i32 3
  %27 = load ptr, ptr %11, align 8
  store ptr %27, ptr %26, align 8
  call void @_ZN8C2Access16fixup_decoratorsEv(ptr noundef nonnull align 8 dereferenceable(49) %17)
  ret void
}

; Function Attrs: mustprogress nounwind uwtable
define linkonce_odr hidden noundef ptr @_ZNK4Node2inEj(ptr noundef nonnull align 8 dereferenceable(52) %0, i32 noundef %1) #1 comdat align 2 {
  %3 = alloca ptr, align 8
  %4 = alloca i32, align 4
  store ptr %0, ptr %3, align 8
  store i32 %1, ptr %4, align 4
  %5 = load ptr, ptr %3, align 8
  %6 = getelementptr inbounds %class.Node, ptr %5, i32 0, i32 1
  %7 = load ptr, ptr %6, align 8
  %8 = load i32, ptr %4, align 4
  %9 = zext i32 %8 to i64
  %10 = getelementptr inbounds ptr, ptr %7, i64 %9
  %11 = load ptr, ptr %10, align 8
  ret ptr %11
}

; Function Attrs: mustprogress nounwind uwtable
define linkonce_odr hidden void @_ZN16C2AccessValuePtrC2EP4NodePK7TypePtr(ptr noundef nonnull align 8 dereferenceable(16) %0, ptr noundef %1, ptr noundef %2) unnamed_addr #1 comdat align 2 {
  %4 = alloca ptr, align 8
  %5 = alloca ptr, align 8
  %6 = alloca ptr, align 8
  store ptr %0, ptr %4, align 8
  store ptr %1, ptr %5, align 8
  store ptr %2, ptr %6, align 8
  %7 = load ptr, ptr %4, align 8
  %8 = load ptr, ptr %5, align 8
  %9 = load ptr, ptr %6, align 8
  call void @_ZN13C2AccessValueC2EP4NodePK4Type(ptr noundef nonnull align 8 dereferenceable(16) %7, ptr noundef %8, ptr noundef %9)
  ret void
}

; Function Attrs: mustprogress nounwind uwtable
define hidden noundef ptr @_ZN13ArrayCopyNode4loadEP12BarrierSetC2P8PhaseGVNRP4NodeP12MergeMemNodeS5_PK7TypePtrPK4Type9BasicType(ptr noundef %0, ptr noundef %1, ptr noundef nonnull align 8 dereferenceable(8) %2, ptr noundef %3, ptr noundef %4, ptr noundef %5, ptr noundef %6, i8 noundef zeroext %7) #1 align 2 {
  %9 = alloca ptr, align 8
  %10 = alloca ptr, align 8
  %11 = alloca ptr, align 8
  %12 = alloca ptr, align 8
  %13 = alloca ptr, align 8
  %14 = alloca ptr, align 8
  %15 = alloca ptr, align 8
  %16 = alloca i8, align 1
  %17 = alloca i64, align 8
  %18 = alloca %class.C2AccessValuePtr, align 8
  %19 = alloca %class.C2OptAccess, align 8
  %20 = alloca ptr, align 8
  store ptr %0, ptr %9, align 8
  store ptr %1, ptr %10, align 8
  store ptr %2, ptr %11, align 8
  store ptr %3, ptr %12, align 8
  store ptr %4, ptr %13, align 8
  store ptr %5, ptr %14, align 8
  store ptr %6, ptr %15, align 8
  store i8 %7, ptr %16, align 1
  store i64 1425929404416, ptr %17, align 8
  %21 = load ptr, ptr %13, align 8
  %22 = load ptr, ptr %14, align 8
  call void @_ZN16C2AccessValuePtrC2EP4NodePK7TypePtr(ptr noundef nonnull align 8 dereferenceable(16) %18, ptr noundef %21, ptr noundef %22)
  %23 = load ptr, ptr %10, align 8
  %24 = load ptr, ptr %11, align 8
  %25 = load ptr, ptr %24, align 8
  %26 = load ptr, ptr %12, align 8
  %27 = load i64, ptr %17, align 8
  %28 = load i8, ptr %16, align 1
  %29 = load ptr, ptr %13, align 8
  %30 = call noundef ptr @_ZNK4Node2inEj(ptr noundef nonnull align 8 dereferenceable(52) %29, i32 noundef 1)
  call void @_ZN11C2OptAccessC2ER8PhaseGVNP4NodeP12MergeMemNodem9BasicTypeS3_R16C2AccessValuePtr(ptr noundef nonnull align 8 dereferenceable(80) %19, ptr noundef nonnull align 8 dereferenceable(2400) %23, ptr noundef %25, ptr noundef %26, i64 noundef %27, i8 noundef zeroext %28, ptr noundef %30, ptr noundef nonnull align 8 dereferenceable(16) %18)
  %31 = load ptr, ptr %9, align 8
  %32 = load ptr, ptr %15, align 8
  %33 = load ptr, ptr %31, align 8
  %34 = getelementptr inbounds ptr, ptr %33, i64 8
  %35 = load ptr, ptr %34, align 8
  %36 = call noundef ptr %35(ptr noundef nonnull align 8 dereferenceable(8) %31, ptr noundef nonnull align 8 dereferenceable(49) %19, ptr noundef %32)
  store ptr %36, ptr %20, align 8
  %37 = call noundef ptr @_ZNK11C2OptAccess3ctlEv(ptr noundef nonnull align 8 dereferenceable(80) %19)
  %38 = load ptr, ptr %11, align 8
  store ptr %37, ptr %38, align 8
  %39 = load ptr, ptr %20, align 8
  ret ptr %39
}