; Function Attrs: mustprogress nounwind uwtable
define hidden noundef ptr @_ZN13ArrayCopyNode4loadEP12BarrierSetC2P8PhaseGVNRP4NodeP12MergeMemNodeS5_PK7TypePtrPK4Type9BasicType(ptr noundef %0, ptr noundef %1, ptr nocapture noundef nonnull align 8 dereferenceable(8) %2, ptr noundef %3, ptr noundef %4, ptr noundef %5, ptr noundef %6, i8 noundef zeroext %7) local_unnamed_addr #0 align 2 {
  %9 = alloca %class.C2AccessValuePtr, align 8
  %10 = alloca %class.C2OptAccess, align 8
  store ptr %4, ptr %9, align 8
  %11 = getelementptr inbounds i8, ptr %9, i64 8
  store ptr %5, ptr %11, align 8
  %12 = load ptr, ptr %2, align 8
  %13 = getelementptr inbounds i8, ptr %4, i64 8
  %14 = load ptr, ptr %13, align 8
  %15 = getelementptr inbounds i8, ptr %14, i64 8
  %16 = load ptr, ptr %15, align 8
  %17 = getelementptr inbounds i8, ptr %10, i64 8
  store i64 1425929404416, ptr %17, align 8
  %18 = getelementptr inbounds i8, ptr %10, i64 16
  store i8 %7, ptr %18, align 8
  %19 = getelementptr inbounds i8, ptr %10, i64 24
  store ptr %16, ptr %19, align 8
  %20 = getelementptr inbounds i8, ptr %10, i64 32
  store ptr %9, ptr %20, align 8
  %21 = getelementptr inbounds i8, ptr %10, i64 40
  store ptr null, ptr %21, align 8
  %22 = getelementptr inbounds i8, ptr %10, i64 48
  store i8 0, ptr %22, align 8
  store ptr getelementptr inbounds inrange(-16, 32) (i8, ptr @_ZTV11C2OptAccess, i64 16), ptr %10, align 8
  %23 = getelementptr inbounds i8, ptr %10, i64 56
  store ptr %1, ptr %23, align 8
  %24 = getelementptr inbounds i8, ptr %10, i64 64
  store ptr %3, ptr %24, align 8
  %25 = getelementptr inbounds i8, ptr %10, i64 72
  store ptr %12, ptr %25, align 8
  call void @_ZN8C2Access16fixup_decoratorsEv(ptr noundef nonnull align 8 dereferenceable(49) %10) #10
  %26 = load ptr, ptr %0, align 8
  %27 = getelementptr inbounds i8, ptr %26, i64 64
  %28 = load ptr, ptr %27, align 8
  %29 = call noundef ptr %28(ptr noundef nonnull align 8 dereferenceable(8) %0, ptr noundef nonnull align 8 dereferenceable(49) %10, ptr noundef %6) #10
  %30 = load ptr, ptr %25, align 8
  store ptr %30, ptr %2, align 8
  ret ptr %29
}